target datalayout = "e-m:e-p270:32:32-p271:32:32-p272:64:64-i64:64-i128:128-f80:128-n8:16:32:64-S128"
target triple = "x86_64-pc-linux-gnu"

%struct.cl_stat = type { ptr, ptr, ptr, i32 }

@dbstat = internal global %struct.cl_stat zeroinitializer, align 8
@.str.231 = private unnamed_addr constant [46 x i8] c"No stats for Database check - forcing reload\0A\00", align 1
@.str.232 = private unnamed_addr constant [60 x i8] c"SelfCheck: Database modification detected. Forcing reload.\0A\00", align 1
@.str.233 = private unnamed_addr constant [32 x i8] c"SelfCheck: Database status OK.\0A\00", align 1

; Function Attrs: nounwind uwtable
define internal i32 @need_db_reload() #0 {
  %1 = alloca i32, align 4
  %2 = load i32, ptr getelementptr inbounds (%struct.cl_stat, ptr @dbstat, i32 0, i32 3), align 8
  %3 = icmp ne i32 %2, 0
  br i1 %3, label %6, label %4

4:                                                ; preds = %0
  %5 = call i32 (i32, ptr, ...) @logg(i32 noundef 0, ptr noundef @.str.231)
  store i32 1, ptr %1, align 4
  br label %13

6:                                                ; preds = %0
  %7 = call i32 @cl_statchkdir(ptr noundef @dbstat)
  %8 = icmp eq i32 %7, 1
  br i1 %8, label %9, label %11

9:                                                ; preds = %6
  %10 = call i32 (i32, ptr, ...) @logg(i32 noundef 0, ptr noundef @.str.232)
  store i32 1, ptr %1, align 4
  br label %13

11:                                               ; preds = %6
  %12 = call i32 (i32, ptr, ...) @logg(i32 noundef 0, ptr noundef @.str.233)
  store i32 0, ptr %1, align 4
  br label %13

13:                                               ; preds = %11, %9, %4
  %14 = load i32, ptr %1, align 4
  ret i32 %14
}