; Function Attrs: nounwind uwtable
define internal fastcc i32 @need_db_reload() unnamed_addr #0 {
  %1 = load i32, ptr getelementptr inbounds (%struct.cl_stat, ptr @dbstat, i64 0, i32 3), align 8
  %.not = icmp eq i32 %1, 0
  br i1 %.not, label %5, label %2

2:                                                ; preds = %0
  %3 = tail call i32 @cl_statchkdir(ptr noundef nonnull @dbstat) #15
  %4 = icmp eq i32 %3, 1
  %.str.232..str.233 = select i1 %4, ptr @.str.232, ptr @.str.233
  %. = zext i1 %4 to i32
  br label %5

5:                                                ; preds = %2, %0
  %.str.233.sink = phi ptr [ @.str.231, %0 ], [ %.str.232..str.233, %2 ]
  %.0 = phi i32 [ 1, %0 ], [ %., %2 ]
  %6 = tail call i32 (i32, ptr, ...) @logg(i32 noundef 0, ptr noundef nonnull %.str.233.sink) #15
  ret i32 %.0
}